; Function Attrs: mustprogress nofree norecurse nosync nounwind willreturn memory(read, inaccessiblemem: none) uwtable
define dso_local noundef nonnull align 8 dereferenceable(24) ptr @_ZN5clang19SarifDocumentWriter13getCurrentRunEv(ptr noundef nonnull readonly align 8 captures(none) dereferenceable(4720) %0) local_unnamed_addr #4 align 2 {
  %2 = getelementptr inbounds nuw i8, ptr %0, i64 56
  %3 = load ptr, ptr %2, align 8
  %4 = getelementptr inbounds i8, ptr %3, i64 -40
  %5 = load i16, ptr %4, align 8
  %6 = icmp eq i16 %5, 7
  %7 = getelementptr inbounds i8, ptr %3, i64 -32
  %spec.select.i = select i1 %6, ptr %7, ptr null
  ret ptr %spec.select.i
}